target datalayout = "e-m:e-p270:32:32-p271:32:32-p272:64:64-i64:64-i128:128-f80:128-n8:16:32:64-S128"
target triple = "x86_64-pc-linux-gnu"

%struct.wpacket_st = type { ptr, ptr, i64, i64, i64, ptr, i8 }
%struct.buf_mem_st = type { i64, ptr, i64, i64 }
%struct.PACKET = type { ptr, i64 }

@.str = private unnamed_addr constant [30 x i8] c"../openssl/test/wpackettest.c\00", align 1
@buf = internal global ptr null, align 8
@.str.11 = private unnamed_addr constant [24 x i8] c"WPACKET_init(&pkt, buf)\00", align 1
@.str.15 = private unnamed_addr constant [42 x i8] c"WPACKET_get_total_written(&pkt, &written)\00", align 1
@.str.49 = private unnamed_addr constant [2 x i8] c"0\00", align 1
@.str.102 = private unnamed_addr constant [41 x i8] c"RAND_bytes(rand_data, sizeof(rand_data))\00", align 1
@.str.103 = private unnamed_addr constant [41 x i8] c"WPACKET_quic_write_vlint(&pkt, expected)\00", align 1
@.str.104 = private unnamed_addr constant [64 x i8] c"PACKET_buf_init(&read_pkt, (unsigned char *)buf->data, written)\00", align 1
@.str.105 = private unnamed_addr constant [42 x i8] c"PACKET_get_quic_vlint(&read_pkt, &actual)\00", align 1
@.str.106 = private unnamed_addr constant [9 x i8] c"expected\00", align 1
@.str.107 = private unnamed_addr constant [7 x i8] c"actual\00", align 1

; Function Attrs: inlinehint nounwind uwtable
define internal void @packet_forward(ptr noundef %0, i64 noundef %1) #5 {
  %3 = alloca ptr, align 8
  %4 = alloca i64, align 8
  store ptr %0, ptr %3, align 8, !tbaa !24
  store i64 %1, ptr %4, align 8, !tbaa !13
  %5 = load i64, ptr %4, align 8, !tbaa !13
  %6 = load ptr, ptr %3, align 8, !tbaa !24
  %7 = getelementptr inbounds nuw %struct.PACKET, ptr %6, i32 0, i32 0
  %8 = load ptr, ptr %7, align 8, !tbaa !25
  %9 = getelementptr inbounds nuw i8, ptr %8, i64 %5
  store ptr %9, ptr %7, align 8, !tbaa !25
  %10 = load i64, ptr %4, align 8, !tbaa !13
  %11 = load ptr, ptr %3, align 8, !tbaa !24
  %12 = getelementptr inbounds nuw %struct.PACKET, ptr %11, i32 0, i32 1
  %13 = load i64, ptr %12, align 8, !tbaa !27
  %14 = sub i64 %13, %10
  store i64 %14, ptr %12, align 8, !tbaa !27
  ret void
}

; Function Attrs: inlinehint nounwind uwtable
define internal i64 @ossl_quic_vlint_decode_len(i8 noundef zeroext %0) #5 {
  %2 = alloca i8, align 1
  store i8 %0, ptr %2, align 1, !tbaa !19
  %3 = load i8, ptr %2, align 1, !tbaa !19
  %4 = zext i8 %3 to i32
  %5 = and i32 %4, 192
  %6 = ashr i32 %5, 6
  %7 = shl i32 1, %6
  %8 = zext i32 %7 to i64
  ret i64 %8
}

; Function Attrs: inlinehint nounwind uwtable
define internal i64 @PACKET_remaining(ptr noundef %0) #5 {
  %2 = alloca ptr, align 8
  store ptr %0, ptr %2, align 8, !tbaa !24
  %3 = load ptr, ptr %2, align 8, !tbaa !24
  %4 = getelementptr inbounds nuw %struct.PACKET, ptr %3, i32 0, i32 1
  %5 = load i64, ptr %4, align 8, !tbaa !27
  ret i64 %5
}

; Function Attrs: inlinehint nounwind uwtable
define internal i32 @PACKET_get_quic_vlint(ptr noundef %0, ptr noundef %1) #5 {
  %3 = alloca i32, align 4
  %4 = alloca ptr, align 8
  %5 = alloca ptr, align 8
  %6 = alloca i64, align 8
  %7 = alloca i32, align 4
  store ptr %0, ptr %4, align 8, !tbaa !24
  store ptr %1, ptr %5, align 8, !tbaa !28
  call void @llvm.lifetime.start.p0(i64 8, ptr %6) #6
  %8 = load ptr, ptr %4, align 8, !tbaa !24
  %9 = call i64 @PACKET_remaining(ptr noundef %8)
  %10 = icmp ult i64 %9, 1
  br i1 %10, label %11, label %12

11:                                               ; preds = %2
  store i32 0, ptr %3, align 4
  store i32 1, ptr %7, align 4
  br label %31

12:                                               ; preds = %2
  %13 = load ptr, ptr %4, align 8, !tbaa !24
  %14 = getelementptr inbounds nuw %struct.PACKET, ptr %13, i32 0, i32 0
  %15 = load ptr, ptr %14, align 8, !tbaa !25
  %16 = load i8, ptr %15, align 1, !tbaa !19
  %17 = call i64 @ossl_quic_vlint_decode_len(i8 noundef zeroext %16)
  store i64 %17, ptr %6, align 8, !tbaa !13
  %18 = load ptr, ptr %4, align 8, !tbaa !24
  %19 = call i64 @PACKET_remaining(ptr noundef %18)
  %20 = load i64, ptr %6, align 8, !tbaa !13
  %21 = icmp ult i64 %19, %20
  br i1 %21, label %22, label %23

22:                                               ; preds = %12
  store i32 0, ptr %3, align 4
  store i32 1, ptr %7, align 4
  br label %31

23:                                               ; preds = %12
  %24 = load ptr, ptr %4, align 8, !tbaa !24
  %25 = getelementptr inbounds nuw %struct.PACKET, ptr %24, i32 0, i32 0
  %26 = load ptr, ptr %25, align 8, !tbaa !25
  %27 = call i64 @ossl_quic_vlint_decode_unchecked(ptr noundef %26)
  %28 = load ptr, ptr %5, align 8, !tbaa !28
  store i64 %27, ptr %28, align 8, !tbaa !13
  %29 = load ptr, ptr %4, align 8, !tbaa !24
  %30 = load i64, ptr %6, align 8, !tbaa !13
  call void @packet_forward(ptr noundef %29, i64 noundef %30)
  store i32 1, ptr %3, align 4
  store i32 1, ptr %7, align 4
  br label %31

31:                                               ; preds = %23, %22, %11
  call void @llvm.lifetime.end.p0(i64 8, ptr %6) #6
  %32 = load i32, ptr %3, align 4
  ret i32 %32
}

; Function Attrs: inlinehint nounwind uwtable
define internal i32 @PACKET_buf_init(ptr noundef %0, ptr noundef %1, i64 noundef %2) #5 {
  %4 = alloca i32, align 4
  %5 = alloca ptr, align 8
  %6 = alloca ptr, align 8
  %7 = alloca i64, align 8
  store ptr %0, ptr %5, align 8, !tbaa !24
  store ptr %1, ptr %6, align 8, !tbaa !18
  store i64 %2, ptr %7, align 8, !tbaa !13
  %8 = load i64, ptr %7, align 8, !tbaa !13
  %9 = icmp ugt i64 %8, 9223372036854775807
  br i1 %9, label %10, label %11

10:                                               ; preds = %3
  store i32 0, ptr %4, align 4
  br label %18

11:                                               ; preds = %3
  %12 = load ptr, ptr %6, align 8, !tbaa !18
  %13 = load ptr, ptr %5, align 8, !tbaa !24
  %14 = getelementptr inbounds nuw %struct.PACKET, ptr %13, i32 0, i32 0
  store ptr %12, ptr %14, align 8, !tbaa !25
  %15 = load i64, ptr %7, align 8, !tbaa !13
  %16 = load ptr, ptr %5, align 8, !tbaa !24
  %17 = getelementptr inbounds nuw %struct.PACKET, ptr %16, i32 0, i32 1
  store i64 %15, ptr %17, align 8, !tbaa !27
  store i32 1, ptr %4, align 4
  br label %18

18:                                               ; preds = %11, %10
  %19 = load i32, ptr %4, align 4
  ret i32 %19
}

; Function Attrs: nounwind uwtable
define internal i32 @cleanup(ptr noundef %0) #0 {
  %2 = alloca ptr, align 8
  store ptr %0, ptr %2, align 8, !tbaa !22
  %3 = load ptr, ptr %2, align 8, !tbaa !22
  call void @WPACKET_cleanup(ptr noundef %3)
  ret i32 0
}

; Function Attrs: nounwind uwtable
define internal i32 @test_WPACKET_quic_vlint_random() #0 {
  %1 = alloca i32, align 4
  %2 = alloca i64, align 8
  %3 = alloca i64, align 8
  %4 = alloca i64, align 8
  %5 = alloca i64, align 8
  %6 = alloca [9 x i8], align 1
  %7 = alloca %struct.wpacket_st, align 8
  %8 = alloca %struct.PACKET, align 8
  %9 = alloca i32, align 4
  call void @llvm.lifetime.start.p0(i64 8, ptr %2) #6
  call void @llvm.lifetime.start.p0(i64 8, ptr %3) #6
  call void @llvm.lifetime.start.p0(i64 8, ptr %4) #6
  call void @llvm.lifetime.start.p0(i64 8, ptr %5) #6
  store i64 0, ptr %5, align 8, !tbaa !13
  call void @llvm.lifetime.start.p0(i64 9, ptr %6) #6
  call void @llvm.lifetime.start.p0(i64 56, ptr %7) #6
  call void @llvm.lifetime.start.p0(i64 16, ptr %8) #6
  call void @llvm.memset.p0.i64(ptr align 8 %8, i8 0, i64 16, i1 false)
  store i64 0, ptr %2, align 8, !tbaa !13
  br label %10

10:                                               ; preds = %84, %0
  %11 = load i64, ptr %2, align 8, !tbaa !13
  %12 = icmp ult i64 %11, 10000
  br i1 %12, label %13, label %87

13:                                               ; preds = %10
  %14 = getelementptr inbounds [9 x i8], ptr %6, i64 0, i64 0
  %15 = call i32 @RAND_bytes(ptr noundef %14, i32 noundef 9)
  %16 = call i32 @test_int_gt(ptr noundef @.str, i32 noundef 590, ptr noundef @.str.102, ptr noundef @.str.49, i32 noundef %15, i32 noundef 0)
  %17 = icmp ne i32 %16, 0
  br i1 %17, label %20, label %18

18:                                               ; preds = %13
  %19 = call i32 @cleanup(ptr noundef %7)
  store i32 %19, ptr %1, align 4
  store i32 1, ptr %9, align 4
  br label %88

20:                                               ; preds = %13
  %21 = getelementptr inbounds [9 x i8], ptr %6, i64 0, i64 0
  call void @llvm.memcpy.p0.p0.i64(ptr align 8 %4, ptr align 1 %21, i64 8, i1 false)
  %22 = getelementptr inbounds [9 x i8], ptr %6, i64 0, i64 8
  %23 = load i8, ptr %22, align 1, !tbaa !19
  %24 = zext i8 %23 to i32
  %25 = and i32 %24, 3
  switch i32 %25, label %38 [
    i32 0, label %26
    i32 1, label %29
    i32 2, label %32
    i32 3, label %35
  ]

26:                                               ; preds = %20
  %27 = load i64, ptr %4, align 8, !tbaa !13
  %28 = and i64 %27, 63
  store i64 %28, ptr %4, align 8, !tbaa !13
  br label %38

29:                                               ; preds = %20
  %30 = load i64, ptr %4, align 8, !tbaa !13
  %31 = and i64 %30, 16383
  store i64 %31, ptr %4, align 8, !tbaa !13
  br label %38

32:                                               ; preds = %20
  %33 = load i64, ptr %4, align 8, !tbaa !13
  %34 = and i64 %33, 1073741823
  store i64 %34, ptr %4, align 8, !tbaa !13
  br label %38

35:                                               ; preds = %20
  %36 = load i64, ptr %4, align 8, !tbaa !13
  %37 = and i64 %36, 4611686018427387903
  store i64 %37, ptr %4, align 8, !tbaa !13
  br label %38

38:                                               ; preds = %20, %35, %32, %29, %26
  %39 = load ptr, ptr @buf, align 8, !tbaa !4
  %40 = call i32 @WPACKET_init(ptr noundef %7, ptr noundef %39)
  %41 = icmp ne i32 %40, 0
  %42 = zext i1 %41 to i32
  %43 = call i32 @test_true(ptr noundef @.str, i32 noundef 613, ptr noundef @.str.11, i32 noundef %42)
  %44 = icmp ne i32 %43, 0
  br i1 %44, label %45, label %58

45:                                               ; preds = %38
  %46 = load i64, ptr %4, align 8, !tbaa !13
  %47 = call i32 @WPACKET_quic_write_vlint(ptr noundef %7, i64 noundef %46)
  %48 = icmp ne i32 %47, 0
  %49 = zext i1 %48 to i32
  %50 = call i32 @test_true(ptr noundef @.str, i32 noundef 614, ptr noundef @.str.103, i32 noundef %49)
  %51 = icmp ne i32 %50, 0
  br i1 %51, label %52, label %58

52:                                               ; preds = %45
  %53 = call i32 @WPACKET_get_total_written(ptr noundef %7, ptr noundef %3)
  %54 = icmp ne i32 %53, 0
  %55 = zext i1 %54 to i32
  %56 = call i32 @test_true(ptr noundef @.str, i32 noundef 615, ptr noundef @.str.15, i32 noundef %55)
  %57 = icmp ne i32 %56, 0
  br i1 %57, label %60, label %58

58:                                               ; preds = %52, %45, %38
  %59 = call i32 @cleanup(ptr noundef %7)
  store i32 %59, ptr %1, align 4
  store i32 1, ptr %9, align 4
  br label %88

60:                                               ; preds = %52
  %61 = load ptr, ptr @buf, align 8, !tbaa !4
  %62 = getelementptr inbounds nuw %struct.buf_mem_st, ptr %61, i32 0, i32 1
  %63 = load ptr, ptr %62, align 8, !tbaa !9
  %64 = load i64, ptr %3, align 8, !tbaa !13
  %65 = call i32 @PACKET_buf_init(ptr noundef %8, ptr noundef %63, i64 noundef %64)
  %66 = icmp ne i32 %65, 0
  %67 = zext i1 %66 to i32
  %68 = call i32 @test_true(ptr noundef @.str, i32 noundef 618, ptr noundef @.str.104, i32 noundef %67)
  %69 = icmp ne i32 %68, 0
  br i1 %69, label %70, label %81

70:                                               ; preds = %60
  %71 = call i32 @PACKET_get_quic_vlint(ptr noundef %8, ptr noundef %5)
  %72 = icmp ne i32 %71, 0
  %73 = zext i1 %72 to i32
  %74 = call i32 @test_true(ptr noundef @.str, i32 noundef 619, ptr noundef @.str.105, i32 noundef %73)
  %75 = icmp ne i32 %74, 0
  br i1 %75, label %76, label %81

76:                                               ; preds = %70
  %77 = load i64, ptr %4, align 8, !tbaa !13
  %78 = load i64, ptr %5, align 8, !tbaa !13
  %79 = call i32 @test_uint64_t_eq(ptr noundef @.str, i32 noundef 620, ptr noundef @.str.106, ptr noundef @.str.107, i64 noundef %77, i64 noundef %78)
  %80 = icmp ne i32 %79, 0
  br i1 %80, label %83, label %81

81:                                               ; preds = %76, %70, %60
  %82 = call i32 @cleanup(ptr noundef %7)
  store i32 %82, ptr %1, align 4
  store i32 1, ptr %9, align 4
  br label %88

83:                                               ; preds = %76
  call void @WPACKET_cleanup(ptr noundef %7)
  br label %84

84:                                               ; preds = %83
  %85 = load i64, ptr %2, align 8, !tbaa !13
  %86 = add i64 %85, 1
  store i64 %86, ptr %2, align 8, !tbaa !13
  br label %10, !llvm.loop !21

87:                                               ; preds = %10
  call void @WPACKET_cleanup(ptr noundef %7)
  store i32 1, ptr %1, align 4
  store i32 1, ptr %9, align 4
  br label %88

88:                                               ; preds = %87, %81, %58, %18
  call void @llvm.lifetime.end.p0(i64 16, ptr %8) #6
  call void @llvm.lifetime.end.p0(i64 56, ptr %7) #6
  call void @llvm.lifetime.end.p0(i64 9, ptr %6) #6
  call void @llvm.lifetime.end.p0(i64 8, ptr %5) #6
  call void @llvm.lifetime.end.p0(i64 8, ptr %4) #6
  call void @llvm.lifetime.end.p0(i64 8, ptr %3) #6
  call void @llvm.lifetime.end.p0(i64 8, ptr %2) #6
  %89 = load i32, ptr %1, align 4
  ret i32 %89
}