; Function Attrs: nounwind uwtable
define internal range(i32 0, 2) i32 @test_WPACKET_quic_vlint_random() #0 {
  %1 = alloca i64, align 8
  %2 = alloca [9 x i8], align 8
  %3 = alloca %struct.wpacket_st, align 8
  call void @llvm.lifetime.start.p0(i64 8, ptr nonnull %1) #4
  call void @llvm.lifetime.start.p0(i64 9, ptr nonnull %2) #4
  call void @llvm.lifetime.start.p0(i64 56, ptr nonnull %3) #4
  %4 = getelementptr inbounds nuw i8, ptr %2, i64 8
  br label %5

5:                                                ; preds = %0, %49
  %.0924 = phi i64 [ 0, %0 ], [ %50, %49 ]
  %.sroa.7.023 = phi i64 [ 0, %0 ], [ %.sroa.7.2, %49 ]
  %.sroa.0.022 = phi ptr [ null, %0 ], [ %.sroa.0.2, %49 ]
  %.02021 = phi i64 [ 0, %0 ], [ %.1, %49 ]
  %6 = call i32 @RAND_bytes(ptr noundef nonnull %2, i32 noundef 9) #4
  %7 = call i32 @test_int_gt(ptr noundef nonnull @.str, i32 noundef 590, ptr noundef nonnull @.str.102, ptr noundef nonnull @.str.49, i32 noundef %6, i32 noundef 0) #4
  %.not = icmp eq i32 %7, 0
  br i1 %.not, label %51, label %switch.lookup

switch.lookup:                                    ; preds = %5
  %.0.copyload = load i64, ptr %2, align 8
  %8 = load i8, ptr %4, align 8, !tbaa !17
  %9 = and i8 %8, 3
  %10 = zext nneg i8 %9 to i64
  %switch.gep = getelementptr inbounds nuw [4 x i64], ptr @switch.table.test_WPACKET_quic_vlint_random, i64 0, i64 %10
  %switch.load = load i64, ptr %switch.gep, align 8
  %11 = and i64 %.0.copyload, %switch.load
  %12 = load ptr, ptr @buf, align 8, !tbaa !4
  %13 = call i32 @WPACKET_init(ptr noundef nonnull %3, ptr noundef %12) #4
  %14 = icmp ne i32 %13, 0
  %15 = zext i1 %14 to i32
  %16 = call i32 @test_true(ptr noundef nonnull @.str, i32 noundef 613, ptr noundef nonnull @.str.11, i32 noundef %15) #4
  %.not11 = icmp eq i32 %16, 0
  br i1 %.not11, label %51, label %17

17:                                               ; preds = %switch.lookup
  %18 = call i32 @WPACKET_quic_write_vlint(ptr noundef nonnull %3, i64 noundef %11) #4
  %19 = icmp ne i32 %18, 0
  %20 = zext i1 %19 to i32
  %21 = call i32 @test_true(ptr noundef nonnull @.str, i32 noundef 614, ptr noundef nonnull @.str.103, i32 noundef %20) #4
  %.not12 = icmp eq i32 %21, 0
  br i1 %.not12, label %51, label %22

22:                                               ; preds = %17
  %23 = call i32 @WPACKET_get_total_written(ptr noundef nonnull %3, ptr noundef nonnull %1) #4
  %24 = icmp ne i32 %23, 0
  %25 = zext i1 %24 to i32
  %26 = call i32 @test_true(ptr noundef nonnull @.str, i32 noundef 615, ptr noundef nonnull @.str.15, i32 noundef %25) #4
  %.not13 = icmp eq i32 %26, 0
  br i1 %.not13, label %51, label %PACKET_buf_init.exit

PACKET_buf_init.exit:                             ; preds = %22
  %27 = load ptr, ptr @buf, align 8, !tbaa !4
  %28 = getelementptr inbounds nuw i8, ptr %27, i64 8
  %29 = load ptr, ptr %28, align 8, !tbaa !9
  %30 = load i64, ptr %1, align 8, !tbaa !13
  %31 = icmp sgt i64 %30, -1
  %.sroa.0.1 = select i1 %31, ptr %29, ptr %.sroa.0.022
  %.sroa.7.1 = select i1 %31, i64 %30, i64 %.sroa.7.023
  %.0.i = zext i1 %31 to i32
  %32 = call i32 @test_true(ptr noundef nonnull @.str, i32 noundef 618, ptr noundef nonnull @.str.104, i32 noundef %.0.i) #4
  %.not14 = icmp eq i32 %32, 0
  br i1 %.not14, label %51, label %33

33:                                               ; preds = %PACKET_buf_init.exit
  %34 = icmp eq i64 %.sroa.7.1, 0
  br i1 %34, label %PACKET_get_quic_vlint.exit, label %35

35:                                               ; preds = %33
  %36 = load i8, ptr %.sroa.0.1, align 1, !tbaa !17
  %37 = lshr i8 %36, 6
  %38 = zext nneg i8 %37 to i32
  %39 = shl nuw nsw i32 1, %38
  %40 = zext nneg i32 %39 to i64
  %41 = icmp ult i64 %.sroa.7.1, %40
  br i1 %41, label %PACKET_get_quic_vlint.exit, label %42

42:                                               ; preds = %35
  %43 = call i64 @ossl_quic_vlint_decode_unchecked(ptr noundef nonnull %.sroa.0.1) #4
  %44 = getelementptr inbounds nuw i8, ptr %.sroa.0.1, i64 %40
  %45 = sub nuw i64 %.sroa.7.1, %40
  br label %PACKET_get_quic_vlint.exit

PACKET_get_quic_vlint.exit:                       ; preds = %33, %35, %42
  %.1 = phi i64 [ %.02021, %33 ], [ %.02021, %35 ], [ %43, %42 ]
  %.sroa.0.2 = phi ptr [ %.sroa.0.1, %33 ], [ %.sroa.0.1, %35 ], [ %44, %42 ]
  %.sroa.7.2 = phi i64 [ 0, %33 ], [ %.sroa.7.1, %35 ], [ %45, %42 ]
  %.0.i17 = phi i32 [ 0, %33 ], [ 0, %35 ], [ 1, %42 ]
  %46 = call i32 @test_true(ptr noundef nonnull @.str, i32 noundef 619, ptr noundef nonnull @.str.105, i32 noundef %.0.i17) #4
  %.not15 = icmp eq i32 %46, 0
  br i1 %.not15, label %51, label %47

47:                                               ; preds = %PACKET_get_quic_vlint.exit
  %48 = call i32 @test_uint64_t_eq(ptr noundef nonnull @.str, i32 noundef 620, ptr noundef nonnull @.str.106, ptr noundef nonnull @.str.107, i64 noundef %11, i64 noundef %.1) #4
  %.not16 = icmp eq i32 %48, 0
  br i1 %.not16, label %51, label %49

49:                                               ; preds = %47
  call void @WPACKET_cleanup(ptr noundef nonnull %3) #4
  %50 = add nuw nsw i64 %.0924, 1
  %exitcond.not = icmp eq i64 %50, 10000
  br i1 %exitcond.not, label %51, label %5, !llvm.loop !19

51:                                               ; preds = %49, %PACKET_buf_init.exit, %PACKET_get_quic_vlint.exit, %47, %switch.lookup, %17, %22, %5
  %.010 = phi i32 [ 0, %5 ], [ 0, %22 ], [ 0, %17 ], [ 0, %switch.lookup ], [ 0, %47 ], [ 0, %PACKET_get_quic_vlint.exit ], [ 0, %PACKET_buf_init.exit ], [ 1, %49 ]
  call void @WPACKET_cleanup(ptr noundef nonnull %3) #4
  call void @llvm.lifetime.end.p0(i64 56, ptr nonnull %3) #4
  call void @llvm.lifetime.end.p0(i64 9, ptr nonnull %2) #4
  call void @llvm.lifetime.end.p0(i64 8, ptr nonnull %1) #4
  ret i32 %.010
}